; Function Attrs: mustprogress uwtable
define hidden noundef i32 @_ZNK5nlsat6solver5valueEN3sat7literalE(ptr nocapture noundef nonnull readonly align 8 dereferenceable(16) %this, i32 %l.coerce) local_unnamed_addr #4 align 2 {
entry:
  %0 = load ptr, ptr %this, align 8
  %shr.i.i.i = lshr i32 %l.coerce, 1
  %1 = and i32 %l.coerce, 1
  %tobool.i.not.i.i = icmp eq i32 %1, 0
  %m_bvalues5.i.i = getelementptr inbounds i8, ptr %0, i64 368
  %2 = load ptr, ptr %m_bvalues5.i.i, align 8
  %idxprom.i2.i.i = zext nneg i32 %shr.i.i.i to i64
  %arrayidx.i3.i.i = getelementptr inbounds i32, ptr %2, i64 %idxprom.i2.i.i
  %3 = load i32, ptr %arrayidx.i3.i.i, align 4
  %sub.i.i.i = sub nsw i32 0, %3
  %retval.0.i.i = select i1 %tobool.i.not.i.i, i32 %3, i32 %sub.i.i.i
  %cmp.not.i = icmp eq i32 %retval.0.i.i, 0
  br i1 %cmp.not.i, label %if.end.i, label %_ZN5nlsat6solver3imp5valueEN3sat7literalE.exit

if.end.i:                                         ; preds = %entry
  %m_atoms.i = getelementptr inbounds i8, ptr %0, i64 360
  %4 = load ptr, ptr %m_atoms.i, align 8
  %arrayidx.i.i = getelementptr inbounds ptr, ptr %4, i64 %idxprom.i2.i.i
  %5 = load ptr, ptr %arrayidx.i.i, align 8
  %cmp5.i = icmp eq ptr %5, null
  br i1 %cmp5.i, label %_ZN5nlsat6solver3imp5valueEN3sat7literalE.exit, label %if.end7.i

if.end7.i:                                        ; preds = %if.end.i
  %m_max_var.i.i = getelementptr inbounds i8, ptr %5, i64 12
  %6 = load i32, ptr %m_max_var.i.i, align 4
  %m_assigned.i.i = getelementptr inbounds i8, ptr %0, i64 120
  %7 = load ptr, ptr %m_assigned.i.i, align 8
  %cmp.i.i.i.i = icmp eq ptr %7, null
  br i1 %cmp.i.i.i.i, label %_ZN5nlsat6solver3imp5valueEN3sat7literalE.exit, label %_ZNK6vectorIbLb0EjE3getEjRKb.exit.i.i

_ZNK6vectorIbLb0EjE3getEjRKb.exit.i.i:            ; preds = %if.end7.i
  %arrayidx.i.i.i.i = getelementptr inbounds i8, ptr %7, i64 -4
  %8 = load i32, ptr %arrayidx.i.i.i.i, align 4
  %cmp.not.i.i.i = icmp ugt i32 %8, %6
  br i1 %cmp.not.i.i.i, label %_ZNK5nlsat10assignment11is_assignedEj.exit.i, label %_ZN5nlsat6solver3imp5valueEN3sat7literalE.exit

_ZNK5nlsat10assignment11is_assignedEj.exit.i:     ; preds = %_ZNK6vectorIbLb0EjE3getEjRKb.exit.i.i
  %idxprom.i.i.i = zext i32 %6 to i64
  %arrayidx.i.i.i = getelementptr inbounds i8, ptr %7, i64 %idxprom.i.i.i
  %.then.val.i.i = load i8, ptr %arrayidx.i.i.i, align 1
  %9 = and i8 %.then.val.i.i, 1
  %.not.i = icmp eq i8 %9, 0
  br i1 %.not.i, label %_ZN5nlsat6solver3imp5valueEN3sat7literalE.exit, label %if.end11.i

if.end11.i:                                       ; preds = %_ZNK5nlsat10assignment11is_assignedEj.exit.i
  %m_evaluator.i = getelementptr inbounds i8, ptr %0, i64 128
  %tobool.i5.i = icmp ne i32 %1, 0
  %call13.i = tail call noundef zeroext i1 @_ZN5nlsat9evaluator4evalEPNS_4atomEb(ptr noundef nonnull align 8 dereferenceable(8) %m_evaluator.i, ptr noundef nonnull %5, i1 noundef zeroext %tobool.i5.i)
  %sub.i.i = select i1 %call13.i, i32 1, i32 -1
  br label %_ZN5nlsat6solver3imp5valueEN3sat7literalE.exit

_ZN5nlsat6solver3imp5valueEN3sat7literalE.exit:   ; preds = %entry, %if.end.i, %if.end7.i, %_ZNK6vectorIbLb0EjE3getEjRKb.exit.i.i, %_ZNK5nlsat10assignment11is_assignedEj.exit.i, %if.end11.i
  %retval.0.i = phi i32 [ %sub.i.i, %if.end11.i ], [ %retval.0.i.i, %entry ], [ 0, %if.end.i ], [ 0, %_ZNK5nlsat10assignment11is_assignedEj.exit.i ], [ 0, %_ZNK6vectorIbLb0EjE3getEjRKb.exit.i.i ], [ 0, %if.end7.i ]
  ret i32 %retval.0.i
}